; Function Attrs: mustprogress nounwind uwtable
define hidden void @_ZN14XPageAllocator13uncommit_pageEP5XPage(ptr noundef nonnull align 8 dereferenceable(609) %0, ptr noundef %1) local_unnamed_addr #1 align 2 {
  %3 = load i8, ptr @ZUncommit, align 1
  %4 = trunc i8 %3 to i1
  br i1 %4, label %5, label %9

5:                                                ; preds = %2
  %6 = getelementptr inbounds i8, ptr %0, i64 232
  %7 = getelementptr inbounds i8, ptr %1, i64 104
  %8 = tail call noundef zeroext i1 @_ZN22XPhysicalMemoryManager8uncommitER15XPhysicalMemory(ptr noundef nonnull align 8 dereferenceable(160) %6, ptr noundef nonnull align 8 dereferenceable(16) %7) #14
  br label %9

9:                                                ; preds = %2, %5
  ret void
}